target datalayout = "e-m:e-p270:32:32-p271:32:32-p272:64:64-i64:64-i128:128-f80:128-n8:16:32:64-S128"
target triple = "x86_64-pc-linux-gnu"

%struct._lv_obj_t = type { ptr, ptr, ptr, ptr, ptr, %struct.lv_area_t, i32, i16, i16 }
%struct.lv_area_t = type { i32, i32, i32, i32 }

; Function Attrs: nounwind uwtable
define zeroext i1 @lv_obj_check_type(ptr noundef %0, ptr noundef %1) #0 {
  %3 = alloca i1, align 1
  %4 = alloca ptr, align 8
  %5 = alloca ptr, align 8
  store ptr %0, ptr %4, align 8, !tbaa !8
  store ptr %1, ptr %5, align 8, !tbaa !3
  %6 = load ptr, ptr %4, align 8, !tbaa !8
  %7 = icmp eq ptr %6, null
  br i1 %7, label %8, label %9

8:                                                ; preds = %2
  store i1 false, ptr %3, align 1
  br label %15

9:                                                ; preds = %2
  %10 = load ptr, ptr %4, align 8, !tbaa !8
  %11 = getelementptr inbounds nuw %struct._lv_obj_t, ptr %10, i32 0, i32 0
  %12 = load ptr, ptr %11, align 8, !tbaa !72
  %13 = load ptr, ptr %5, align 8, !tbaa !3
  %14 = icmp eq ptr %12, %13
  store i1 %14, ptr %3, align 1
  br label %15

15:                                               ; preds = %9, %8
  %16 = load i1, ptr %3, align 1
  ret i1 %16
}